target datalayout = "e-m:e-p270:32:32-p271:32:32-p272:64:64-i64:64-i128:128-f80:128-n8:16:32:64-S128"
target triple = "x86_64-pc-linux-gnu"

%class.QString = type { %struct.QArrayDataPointer }
%struct.QArrayDataPointer = type { ptr, ptr, i64 }
%class.VoipCallsDialog = type { %class.WiresharkDialog.base, i8, ptr, ptr, ptr, ptr, ptr, %struct._voip_calls_tapinfo, ptr, ptr, ptr, ptr, ptr, i8, ptr }
%class.WiresharkDialog.base = type <{ %class.GeometryStateDialog, ptr, i8, [7 x i8], %class.QString, %class.QList, i32, i8 }>
%class.GeometryStateDialog = type { %class.QDialog, %class.QString }
%class.QDialog = type { %class.QWidget }
%class.QWidget = type { %class.QObject, %class.QPaintDevice.base, ptr }
%class.QObject = type { ptr, %class.QScopedPointer }
%class.QScopedPointer = type { ptr }
%class.QPaintDevice.base = type <{ ptr, i16 }>
%class.QList = type { %struct.QArrayDataPointer.0 }
%struct.QArrayDataPointer.0 = type { ptr, ptr, i64 }
%struct._voip_calls_tapinfo = type { ptr, ptr, ptr, ptr, i32, ptr, [1 x ptr], i32, ptr, i32, i32, i32, ptr, ptr, i32, ptr, i32, i8, i32, ptr, i32, i32, i32, i8, i32, ptr, ptr, ptr, i8, i32, i32, i32, i16, i32, i32, i32, i32, i32, i32, i32, i32, i32 }
%class.Ui_VoipCallsDialog = type { ptr, ptr, ptr, ptr, ptr, ptr, ptr, ptr, ptr, ptr, ptr, ptr, ptr, ptr, ptr, ptr, ptr }

; Function Attrs: mustprogress uwtable
define void @_ZN15VoipCallsDialog15switchTimeOfDayEv(ptr noundef nonnull align 8 dereferenceable(480) %0) #0 align 2 {
  %2 = alloca ptr, align 8
  %3 = alloca i8, align 1
  store ptr %0, ptr %2, align 8
  %4 = load ptr, ptr %2, align 8
  %5 = getelementptr inbounds %class.VoipCallsDialog, ptr %4, i32 0, i32 3
  %6 = load ptr, ptr %5, align 8
  %7 = call noundef zeroext i1 @_ZNK18VoipCallsInfoModel9timeOfDayEv(ptr noundef nonnull align 8 dereferenceable(41) %6)
  %8 = xor i1 %7, true
  %9 = zext i1 %8 to i8
  store i8 %9, ptr %3, align 1
  %10 = getelementptr inbounds %class.VoipCallsDialog, ptr %4, i32 0, i32 2
  %11 = load ptr, ptr %10, align 8
  %12 = getelementptr inbounds %class.Ui_VoipCallsDialog, ptr %11, i32 0, i32 14
  %13 = load ptr, ptr %12, align 8
  %14 = load i8, ptr %3, align 1
  %15 = trunc i8 %14 to i1
  call void @_ZN15QAbstractButton10setCheckedEb(ptr noundef nonnull align 8 dereferenceable(40) %13, i1 noundef zeroext %15)
  %16 = getelementptr inbounds %class.VoipCallsDialog, ptr %4, i32 0, i32 3
  %17 = load ptr, ptr %16, align 8
  %18 = load i8, ptr %3, align 1
  %19 = trunc i8 %18 to i1
  call void @_ZN18VoipCallsInfoModel12setTimeOfDayEb(ptr noundef nonnull align 8 dereferenceable(41) %17, i1 noundef zeroext %19)
  %20 = getelementptr inbounds %class.VoipCallsDialog, ptr %4, i32 0, i32 2
  %21 = load ptr, ptr %20, align 8
  %22 = getelementptr inbounds %class.Ui_VoipCallsDialog, ptr %21, i32 0, i32 10
  %23 = load ptr, ptr %22, align 8
  call void @_ZN9QTreeView22resizeColumnToContentsEi(ptr noundef nonnull align 8 dereferenceable(40) %23, i32 noundef 0)
  %24 = getelementptr inbounds %class.VoipCallsDialog, ptr %4, i32 0, i32 2
  %25 = load ptr, ptr %24, align 8
  %26 = getelementptr inbounds %class.Ui_VoipCallsDialog, ptr %25, i32 0, i32 10
  %27 = load ptr, ptr %26, align 8
  call void @_ZN9QTreeView22resizeColumnToContentsEi(ptr noundef nonnull align 8 dereferenceable(40) %27, i32 noundef 1)
  ret void
}