; Function Attrs: mustprogress uwtable
define void @_ZN15VoipCallsDialog15switchTimeOfDayEv(ptr nocapture noundef nonnull readonly align 8 dereferenceable(480) %0) #0 align 2 {
  %2 = getelementptr inbounds i8, ptr %0, i64 144
  %3 = load ptr, ptr %2, align 8
  %4 = tail call noundef zeroext i1 @_ZNK18VoipCallsInfoModel9timeOfDayEv(ptr noundef nonnull align 8 dereferenceable(41) %3)
  %5 = xor i1 %4, true
  %6 = getelementptr inbounds i8, ptr %0, i64 136
  %7 = load ptr, ptr %6, align 8
  %8 = getelementptr inbounds i8, ptr %7, i64 112
  %9 = load ptr, ptr %8, align 8
  tail call void @_ZN15QAbstractButton10setCheckedEb(ptr noundef nonnull align 8 dereferenceable(40) %9, i1 noundef zeroext %5)
  %10 = load ptr, ptr %2, align 8
  tail call void @_ZN18VoipCallsInfoModel12setTimeOfDayEb(ptr noundef nonnull align 8 dereferenceable(41) %10, i1 noundef zeroext %5)
  %11 = load ptr, ptr %6, align 8
  %12 = getelementptr inbounds i8, ptr %11, i64 80
  %13 = load ptr, ptr %12, align 8
  tail call void @_ZN9QTreeView22resizeColumnToContentsEi(ptr noundef nonnull align 8 dereferenceable(40) %13, i32 noundef 0)
  %14 = load ptr, ptr %6, align 8
  %15 = getelementptr inbounds i8, ptr %14, i64 80
  %16 = load ptr, ptr %15, align 8
  tail call void @_ZN9QTreeView22resizeColumnToContentsEi(ptr noundef nonnull align 8 dereferenceable(40) %16, i32 noundef 1)
  ret void
}